target datalayout = "e-m:e-p270:32:32-p271:32:32-p272:64:64-i64:64-i128:128-f80:128-n8:16:32:64-S128"
target triple = "x86_64-pc-linux-gnu"

; Function Attrs: nounwind uwtable
define hidden i64 @mbedtls_mpi_core_sub_int(ptr noundef %0, ptr noundef %1, i64 noundef %2, i64 noundef %3) #0 {
  %5 = alloca ptr, align 8
  %6 = alloca ptr, align 8
  %7 = alloca i64, align 8
  %8 = alloca i64, align 8
  %9 = alloca i64, align 8
  %10 = alloca i64, align 8
  %11 = alloca i64, align 8
  store ptr %0, ptr %5, align 8, !tbaa !7
  store ptr %1, ptr %6, align 8, !tbaa !7
  store i64 %2, ptr %7, align 8, !tbaa !3
  store i64 %3, ptr %8, align 8, !tbaa !3
  call void @llvm.lifetime.start.p0(i64 8, ptr %9) #7
  store i64 0, ptr %9, align 8, !tbaa !3
  br label %12

12:                                               ; preds = %34, %4
  %13 = load i64, ptr %9, align 8, !tbaa !3
  %14 = load i64, ptr %8, align 8, !tbaa !3
  %15 = icmp ult i64 %13, %14
  br i1 %15, label %17, label %16

16:                                               ; preds = %12
  call void @llvm.lifetime.end.p0(i64 8, ptr %9) #7
  br label %37

17:                                               ; preds = %12
  call void @llvm.lifetime.start.p0(i64 8, ptr %10) #7
  %18 = load ptr, ptr %6, align 8, !tbaa !7
  %19 = load i64, ptr %9, align 8, !tbaa !3
  %20 = getelementptr inbounds nuw i64, ptr %18, i64 %19
  %21 = load i64, ptr %20, align 8, !tbaa !3
  store i64 %21, ptr %10, align 8, !tbaa !3
  call void @llvm.lifetime.start.p0(i64 8, ptr %11) #7
  %22 = load i64, ptr %10, align 8, !tbaa !3
  %23 = load i64, ptr %7, align 8, !tbaa !3
  %24 = sub i64 %22, %23
  store i64 %24, ptr %11, align 8, !tbaa !3
  %25 = load i64, ptr %11, align 8, !tbaa !3
  %26 = load i64, ptr %10, align 8, !tbaa !3
  %27 = icmp ugt i64 %25, %26
  %28 = zext i1 %27 to i32
  %29 = sext i32 %28 to i64
  store i64 %29, ptr %7, align 8, !tbaa !3
  %30 = load i64, ptr %11, align 8, !tbaa !3
  %31 = load ptr, ptr %5, align 8, !tbaa !7
  %32 = load i64, ptr %9, align 8, !tbaa !3
  %33 = getelementptr inbounds nuw i64, ptr %31, i64 %32
  store i64 %30, ptr %33, align 8, !tbaa !3
  call void @llvm.lifetime.end.p0(i64 8, ptr %11) #7
  call void @llvm.lifetime.end.p0(i64 8, ptr %10) #7
  br label %34

34:                                               ; preds = %17
  %35 = load i64, ptr %9, align 8, !tbaa !3
  %36 = add i64 %35, 1
  store i64 %36, ptr %9, align 8, !tbaa !3
  br label %12, !llvm.loop !55

37:                                               ; preds = %16
  %38 = load i64, ptr %7, align 8, !tbaa !3
  ret i64 %38
}