; Function Attrs: nofree norecurse nosync nounwind memory(argmem: readwrite) uwtable
define hidden i64 @mbedtls_mpi_core_sub_int(ptr noundef writeonly captures(none) %0, ptr noundef readonly captures(none) %1, i64 noundef %2, i64 noundef %3) local_unnamed_addr #4 {
  %.not = icmp eq i64 %3, 0
  br i1 %.not, label %._crit_edge, label %.lr.ph

._crit_edge:                                      ; preds = %.lr.ph, %4
  %.0.lcssa = phi i64 [ %2, %4 ], [ %9, %.lr.ph ]
  ret i64 %.0.lcssa

.lr.ph:                                           ; preds = %4, %.lr.ph
  %.014 = phi i64 [ %9, %.lr.ph ], [ %2, %4 ]
  %.01213 = phi i64 [ %11, %.lr.ph ], [ 0, %4 ]
  %5 = getelementptr inbounds nuw i64, ptr %1, i64 %.01213
  %6 = load i64, ptr %5, align 8, !tbaa !3
  %7 = sub i64 %6, %.014
  %8 = icmp ugt i64 %.014, %6
  %9 = zext i1 %8 to i64
  %10 = getelementptr inbounds nuw i64, ptr %0, i64 %.01213
  store i64 %7, ptr %10, align 8, !tbaa !3
  %11 = add nuw i64 %.01213, 1
  %exitcond.not = icmp eq i64 %11, %3
  br i1 %exitcond.not, label %._crit_edge, label %.lr.ph, !llvm.loop !48
}